target datalayout = "e-m:e-p270:32:32-p271:32:32-p272:64:64-i64:64-i128:128-f80:128-n8:16:32:64-S128"
target triple = "x86_64-pc-linux-gnu"

%struct.lean_object = type { i32, i32 }
%struct.lean_ctor_object = type { %struct.lean_object, [0 x ptr] }

; Function Attrs: inlinehint nounwind uwtable
define internal zeroext i1 @lean_is_st(ptr noundef %0) #0 {
  %2 = alloca ptr, align 8
  store ptr %0, ptr %2, align 8, !tbaa !8
  %3 = load ptr, ptr %2, align 8, !tbaa !8
  %4 = getelementptr inbounds nuw %struct.lean_object, ptr %3, i32 0, i32 0
  %5 = load i32, ptr %4, align 4, !tbaa !11
  %6 = icmp sgt i32 %5, 0
  ret i1 %6
}

; Function Attrs: inlinehint nounwind uwtable
define internal ptr @lean_to_ctor(ptr noundef %0) #0 {
  %2 = alloca ptr, align 8
  store ptr %0, ptr %2, align 8, !tbaa !8
  %3 = load ptr, ptr %2, align 8, !tbaa !8
  ret ptr %3
}

; Function Attrs: alwaysinline nounwind uwtable
define internal void @lean_dec_ref(ptr noundef %0) #1 {
  %2 = alloca ptr, align 8
  store ptr %0, ptr %2, align 8, !tbaa !8
  %3 = load ptr, ptr %2, align 8, !tbaa !8
  %4 = getelementptr inbounds nuw %struct.lean_object, ptr %3, i32 0, i32 0
  %5 = load i32, ptr %4, align 4, !tbaa !11
  %6 = icmp sgt i32 %5, 1
  %7 = zext i1 %6 to i32
  %8 = sext i32 %7 to i64
  %9 = call i64 @llvm.expect.i64(i64 %8, i64 1)
  %10 = icmp ne i64 %9, 0
  br i1 %10, label %11, label %16

11:                                               ; preds = %1
  %12 = load ptr, ptr %2, align 8, !tbaa !8
  %13 = getelementptr inbounds nuw %struct.lean_object, ptr %12, i32 0, i32 0
  %14 = load i32, ptr %13, align 4, !tbaa !11
  %15 = add i32 %14, -1
  store i32 %15, ptr %13, align 4, !tbaa !11
  br label %24

16:                                               ; preds = %1
  %17 = load ptr, ptr %2, align 8, !tbaa !8
  %18 = getelementptr inbounds nuw %struct.lean_object, ptr %17, i32 0, i32 0
  %19 = load i32, ptr %18, align 4, !tbaa !11
  %20 = icmp ne i32 %19, 0
  br i1 %20, label %21, label %23

21:                                               ; preds = %16
  %22 = load ptr, ptr %2, align 8, !tbaa !8
  call void @lean_dec_ref_cold(ptr noundef %22)
  br label %23

23:                                               ; preds = %21, %16
  br label %24

24:                                               ; preds = %23, %11
  ret void
}

; Function Attrs: inlinehint nounwind uwtable
define internal void @lean_inc_ref(ptr noundef %0) #0 {
  %2 = alloca ptr, align 8
  store ptr %0, ptr %2, align 8, !tbaa !8
  %3 = load ptr, ptr %2, align 8, !tbaa !8
  %4 = call zeroext i1 @lean_is_st(ptr noundef %3)
  %5 = zext i1 %4 to i64
  %6 = call i64 @llvm.expect.i64(i64 %5, i64 1)
  %7 = icmp ne i64 %6, 0
  br i1 %7, label %8, label %13

8:                                                ; preds = %1
  %9 = load ptr, ptr %2, align 8, !tbaa !8
  %10 = getelementptr inbounds nuw %struct.lean_object, ptr %9, i32 0, i32 0
  %11 = load i32, ptr %10, align 4, !tbaa !11
  %12 = add i32 %11, 1
  store i32 %12, ptr %10, align 4, !tbaa !11
  br label %21

13:                                               ; preds = %1
  %14 = load ptr, ptr %2, align 8, !tbaa !8
  %15 = getelementptr inbounds nuw %struct.lean_object, ptr %14, i32 0, i32 0
  %16 = load i32, ptr %15, align 4, !tbaa !11
  %17 = icmp ne i32 %16, 0
  br i1 %17, label %18, label %20

18:                                               ; preds = %13
  %19 = load ptr, ptr %2, align 8, !tbaa !8
  call void @lean_inc_ref_cold(ptr noundef %19)
  br label %20

20:                                               ; preds = %18, %13
  br label %21

21:                                               ; preds = %20, %8
  ret void
}

; Function Attrs: alwaysinline nounwind uwtable
define internal zeroext i1 @lean_is_scalar(ptr noundef %0) #1 {
  %2 = alloca ptr, align 8
  store ptr %0, ptr %2, align 8, !tbaa !8
  %3 = load ptr, ptr %2, align 8, !tbaa !8
  %4 = ptrtoint ptr %3 to i64
  %5 = and i64 %4, 1
  %6 = icmp eq i64 %5, 1
  ret i1 %6
}

; Function Attrs: inlinehint nounwind uwtable
define internal ptr @lean_ctor_obj_cptr(ptr noundef %0) #0 {
  %2 = alloca ptr, align 8
  store ptr %0, ptr %2, align 8, !tbaa !8
  %3 = load ptr, ptr %2, align 8, !tbaa !8
  %4 = call ptr @lean_to_ctor(ptr noundef %3)
  %5 = getelementptr inbounds nuw %struct.lean_ctor_object, ptr %4, i32 0, i32 1
  %6 = getelementptr inbounds [0 x ptr], ptr %5, i64 0, i64 0
  ret ptr %6
}

; Function Attrs: inlinehint nounwind uwtable
define internal ptr @lean_box(i64 noundef %0) #0 {
  %2 = alloca i64, align 8
  store i64 %0, ptr %2, align 8, !tbaa !4
  %3 = load i64, ptr %2, align 8, !tbaa !4
  %4 = shl i64 %3, 1
  %5 = or i64 %4, 1
  %6 = inttoptr i64 %5 to ptr
  ret ptr %6
}

; Function Attrs: alwaysinline nounwind uwtable
define internal void @lean_dec(ptr noundef %0) #1 {
  %2 = alloca ptr, align 8
  store ptr %0, ptr %2, align 8, !tbaa !8
  %3 = load ptr, ptr %2, align 8, !tbaa !8
  %4 = call zeroext i1 @lean_is_scalar(ptr noundef %3)
  br i1 %4, label %7, label %5

5:                                                ; preds = %1
  %6 = load ptr, ptr %2, align 8, !tbaa !8
  call void @lean_dec_ref(ptr noundef %6)
  br label %7

7:                                                ; preds = %5, %1
  ret void
}

; Function Attrs: inlinehint nounwind uwtable
define internal i64 @lean_unbox(ptr noundef %0) #0 {
  %2 = alloca ptr, align 8
  store ptr %0, ptr %2, align 8, !tbaa !8
  %3 = load ptr, ptr %2, align 8, !tbaa !8
  %4 = ptrtoint ptr %3 to i64
  %5 = lshr i64 %4, 1
  ret i64 %5
}

; Function Attrs: alwaysinline nounwind uwtable
define internal void @lean_inc(ptr noundef %0) #1 {
  %2 = alloca ptr, align 8
  store ptr %0, ptr %2, align 8, !tbaa !8
  %3 = load ptr, ptr %2, align 8, !tbaa !8
  %4 = call zeroext i1 @lean_is_scalar(ptr noundef %3)
  br i1 %4, label %7, label %5

5:                                                ; preds = %1
  %6 = load ptr, ptr %2, align 8, !tbaa !8
  call void @lean_inc_ref(ptr noundef %6)
  br label %7

7:                                                ; preds = %5, %1
  ret void
}

; Function Attrs: inlinehint nounwind uwtable
define internal ptr @lean_ctor_get(ptr noundef %0, i32 noundef %1) #0 {
  %3 = alloca ptr, align 8
  %4 = alloca i32, align 4
  store ptr %0, ptr %3, align 8, !tbaa !8
  store i32 %1, ptr %4, align 4, !tbaa !14
  %5 = load ptr, ptr %3, align 8, !tbaa !8
  %6 = call ptr @lean_ctor_obj_cptr(ptr noundef %5)
  %7 = load i32, ptr %4, align 4, !tbaa !14
  %8 = zext i32 %7 to i64
  %9 = getelementptr inbounds nuw ptr, ptr %6, i64 %8
  %10 = load ptr, ptr %9, align 8, !tbaa !8
  ret ptr %10
}

; Function Attrs: nounwind uwtable
define ptr @l_Std_DTreeMap_Internal_Impl_forInStep___at___private_Lean_Meta_Tactic_Grind_Inv_0__Lean_Meta_Grind_checkParents___spec__3___lambda__3(ptr noundef %0, ptr noundef %1, ptr noundef %2, i8 noundef zeroext %3, ptr noundef %4, ptr noundef %5, ptr noundef %6, ptr noundef %7, ptr noundef %8, ptr noundef %9, ptr noundef %10, ptr noundef %11, ptr noundef %12, ptr noundef %13) #2 {
  %15 = alloca ptr, align 8
  %16 = alloca ptr, align 8
  %17 = alloca ptr, align 8
  %18 = alloca ptr, align 8
  %19 = alloca i8, align 1
  %20 = alloca ptr, align 8
  %21 = alloca ptr, align 8
  %22 = alloca ptr, align 8
  %23 = alloca ptr, align 8
  %24 = alloca ptr, align 8
  %25 = alloca ptr, align 8
  %26 = alloca ptr, align 8
  %27 = alloca ptr, align 8
  %28 = alloca ptr, align 8
  %29 = alloca ptr, align 8
  %30 = alloca i8, align 1
  %31 = alloca ptr, align 8
  %32 = alloca ptr, align 8
  %33 = alloca i8, align 1
  %34 = alloca ptr, align 8
  %35 = alloca ptr, align 8
  %36 = alloca ptr, align 8
  %37 = alloca ptr, align 8
  %38 = alloca i32, align 4
  %39 = alloca ptr, align 8
  %40 = alloca i8, align 1
  %41 = alloca ptr, align 8
  %42 = alloca ptr, align 8
  %43 = alloca ptr, align 8
  %44 = alloca ptr, align 8
  %45 = alloca ptr, align 8
  %46 = alloca ptr, align 8
  store ptr %0, ptr %16, align 8, !tbaa !8
  store ptr %1, ptr %17, align 8, !tbaa !8
  store ptr %2, ptr %18, align 8, !tbaa !8
  store i8 %3, ptr %19, align 1, !tbaa !10
  store ptr %4, ptr %20, align 8, !tbaa !8
  store ptr %5, ptr %21, align 8, !tbaa !8
  store ptr %6, ptr %22, align 8, !tbaa !8
  store ptr %7, ptr %23, align 8, !tbaa !8
  store ptr %8, ptr %24, align 8, !tbaa !8
  store ptr %9, ptr %25, align 8, !tbaa !8
  store ptr %10, ptr %26, align 8, !tbaa !8
  store ptr %11, ptr %27, align 8, !tbaa !8
  store ptr %12, ptr %28, align 8, !tbaa !8
  store ptr %13, ptr %29, align 8, !tbaa !8
  br label %47

47:                                               ; preds = %14
  call void @llvm.lifetime.start.p0(i64 1, ptr %30) #7
  %48 = load ptr, ptr %16, align 8, !tbaa !8
  %49 = call zeroext i8 @l_Lean_Expr_hasLooseBVars(ptr noundef %48)
  store i8 %49, ptr %30, align 1, !tbaa !10
  %50 = load i8, ptr %30, align 1, !tbaa !10
  %51 = zext i8 %50 to i32
  %52 = icmp eq i32 %51, 0
  br i1 %52, label %53, label %123

53:                                               ; preds = %47
  call void @llvm.lifetime.start.p0(i64 8, ptr %31) #7
  call void @llvm.lifetime.start.p0(i64 8, ptr %32) #7
  call void @llvm.lifetime.start.p0(i64 1, ptr %33) #7
  %54 = load ptr, ptr %17, align 8, !tbaa !8
  %55 = load ptr, ptr %16, align 8, !tbaa !8
  %56 = load ptr, ptr %21, align 8, !tbaa !8
  %57 = load ptr, ptr %22, align 8, !tbaa !8
  %58 = load ptr, ptr %23, align 8, !tbaa !8
  %59 = load ptr, ptr %24, align 8, !tbaa !8
  %60 = load ptr, ptr %25, align 8, !tbaa !8
  %61 = load ptr, ptr %26, align 8, !tbaa !8
  %62 = load ptr, ptr %27, align 8, !tbaa !8
  %63 = load ptr, ptr %28, align 8, !tbaa !8
  %64 = load ptr, ptr %29, align 8, !tbaa !8
  %65 = call ptr @l_Lean_Meta_Grind_checkChild(ptr noundef %54, ptr noundef %55, ptr noundef %56, ptr noundef %57, ptr noundef %58, ptr noundef %59, ptr noundef %60, ptr noundef %61, ptr noundef %62, ptr noundef %63, ptr noundef %64)
  store ptr %65, ptr %31, align 8, !tbaa !8
  %66 = load ptr, ptr %31, align 8, !tbaa !8
  %67 = call ptr @lean_ctor_get(ptr noundef %66, i32 noundef 0)
  store ptr %67, ptr %32, align 8, !tbaa !8
  %68 = load ptr, ptr %32, align 8, !tbaa !8
  call void @lean_inc(ptr noundef %68)
  %69 = load ptr, ptr %32, align 8, !tbaa !8
  %70 = call i64 @lean_unbox(ptr noundef %69)
  %71 = trunc i64 %70 to i8
  store i8 %71, ptr %33, align 1, !tbaa !10
  %72 = load ptr, ptr %32, align 8, !tbaa !8
  call void @lean_dec(ptr noundef %72)
  %73 = load i8, ptr %33, align 1, !tbaa !10
  %74 = zext i8 %73 to i32
  %75 = icmp eq i32 %74, 0
  br i1 %75, label %76, label %99

76:                                               ; preds = %53
  call void @llvm.lifetime.start.p0(i64 8, ptr %34) #7
  call void @llvm.lifetime.start.p0(i64 8, ptr %35) #7
  call void @llvm.lifetime.start.p0(i64 8, ptr %36) #7
  call void @llvm.lifetime.start.p0(i64 8, ptr %37) #7
  %77 = load ptr, ptr %31, align 8, !tbaa !8
  %78 = call ptr @lean_ctor_get(ptr noundef %77, i32 noundef 1)
  store ptr %78, ptr %34, align 8, !tbaa !8
  %79 = load ptr, ptr %34, align 8, !tbaa !8
  call void @lean_inc(ptr noundef %79)
  %80 = load ptr, ptr %31, align 8, !tbaa !8
  call void @lean_dec(ptr noundef %80)
  %81 = call ptr @lean_box(i64 noundef 0)
  store ptr %81, ptr %35, align 8, !tbaa !8
  %82 = load i8, ptr %19, align 1, !tbaa !10
  %83 = zext i8 %82 to i64
  %84 = call ptr @lean_box(i64 noundef %83)
  store ptr %84, ptr %36, align 8, !tbaa !8
  %85 = load ptr, ptr %18, align 8, !tbaa !8
  %86 = load ptr, ptr %36, align 8, !tbaa !8
  %87 = load ptr, ptr %35, align 8, !tbaa !8
  %88 = load ptr, ptr %21, align 8, !tbaa !8
  %89 = load ptr, ptr %22, align 8, !tbaa !8
  %90 = load ptr, ptr %23, align 8, !tbaa !8
  %91 = load ptr, ptr %24, align 8, !tbaa !8
  %92 = load ptr, ptr %25, align 8, !tbaa !8
  %93 = load ptr, ptr %26, align 8, !tbaa !8
  %94 = load ptr, ptr %27, align 8, !tbaa !8
  %95 = load ptr, ptr %28, align 8, !tbaa !8
  %96 = load ptr, ptr %34, align 8, !tbaa !8
  %97 = call ptr @lean_apply_11(ptr noundef %85, ptr noundef %86, ptr noundef %87, ptr noundef %88, ptr noundef %89, ptr noundef %90, ptr noundef %91, ptr noundef %92, ptr noundef %93, ptr noundef %94, ptr noundef %95, ptr noundef %96)
  store ptr %97, ptr %37, align 8, !tbaa !8
  %98 = load ptr, ptr %37, align 8, !tbaa !8
  store ptr %98, ptr %15, align 8
  store i32 1, ptr %38, align 4
  call void @llvm.lifetime.end.p0(i64 8, ptr %37) #7
  call void @llvm.lifetime.end.p0(i64 8, ptr %36) #7
  call void @llvm.lifetime.end.p0(i64 8, ptr %35) #7
  call void @llvm.lifetime.end.p0(i64 8, ptr %34) #7
  br label %122

99:                                               ; preds = %53
  call void @llvm.lifetime.start.p0(i64 8, ptr %39) #7
  call void @llvm.lifetime.start.p0(i64 1, ptr %40) #7
  call void @llvm.lifetime.start.p0(i64 8, ptr %41) #7
  call void @llvm.lifetime.start.p0(i64 8, ptr %42) #7
  call void @llvm.lifetime.start.p0(i64 8, ptr %43) #7
  %100 = load ptr, ptr %31, align 8, !tbaa !8
  %101 = call ptr @lean_ctor_get(ptr noundef %100, i32 noundef 1)
  store ptr %101, ptr %39, align 8, !tbaa !8
  %102 = load ptr, ptr %39, align 8, !tbaa !8
  call void @lean_inc(ptr noundef %102)
  %103 = load ptr, ptr %31, align 8, !tbaa !8
  call void @lean_dec(ptr noundef %103)
  store i8 1, ptr %40, align 1, !tbaa !10
  %104 = call ptr @lean_box(i64 noundef 0)
  store ptr %104, ptr %41, align 8, !tbaa !8
  %105 = load i8, ptr %40, align 1, !tbaa !10
  %106 = zext i8 %105 to i64
  %107 = call ptr @lean_box(i64 noundef %106)
  store ptr %107, ptr %42, align 8, !tbaa !8
  %108 = load ptr, ptr %18, align 8, !tbaa !8
  %109 = load ptr, ptr %42, align 8, !tbaa !8
  %110 = load ptr, ptr %41, align 8, !tbaa !8
  %111 = load ptr, ptr %21, align 8, !tbaa !8
  %112 = load ptr, ptr %22, align 8, !tbaa !8
  %113 = load ptr, ptr %23, align 8, !tbaa !8
  %114 = load ptr, ptr %24, align 8, !tbaa !8
  %115 = load ptr, ptr %25, align 8, !tbaa !8
  %116 = load ptr, ptr %26, align 8, !tbaa !8
  %117 = load ptr, ptr %27, align 8, !tbaa !8
  %118 = load ptr, ptr %28, align 8, !tbaa !8
  %119 = load ptr, ptr %39, align 8, !tbaa !8
  %120 = call ptr @lean_apply_11(ptr noundef %108, ptr noundef %109, ptr noundef %110, ptr noundef %111, ptr noundef %112, ptr noundef %113, ptr noundef %114, ptr noundef %115, ptr noundef %116, ptr noundef %117, ptr noundef %118, ptr noundef %119)
  store ptr %120, ptr %43, align 8, !tbaa !8
  %121 = load ptr, ptr %43, align 8, !tbaa !8
  store ptr %121, ptr %15, align 8
  store i32 1, ptr %38, align 4
  call void @llvm.lifetime.end.p0(i64 8, ptr %43) #7
  call void @llvm.lifetime.end.p0(i64 8, ptr %42) #7
  call void @llvm.lifetime.end.p0(i64 8, ptr %41) #7
  call void @llvm.lifetime.end.p0(i64 1, ptr %40) #7
  call void @llvm.lifetime.end.p0(i64 8, ptr %39) #7
  br label %122

122:                                              ; preds = %99, %76
  call void @llvm.lifetime.end.p0(i64 1, ptr %33) #7
  call void @llvm.lifetime.end.p0(i64 8, ptr %32) #7
  call void @llvm.lifetime.end.p0(i64 8, ptr %31) #7
  br label %142

123:                                              ; preds = %47
  call void @llvm.lifetime.start.p0(i64 8, ptr %44) #7
  call void @llvm.lifetime.start.p0(i64 8, ptr %45) #7
  call void @llvm.lifetime.start.p0(i64 8, ptr %46) #7
  %124 = call ptr @lean_box(i64 noundef 0)
  store ptr %124, ptr %44, align 8, !tbaa !8
  %125 = load i8, ptr %19, align 1, !tbaa !10
  %126 = zext i8 %125 to i64
  %127 = call ptr @lean_box(i64 noundef %126)
  store ptr %127, ptr %45, align 8, !tbaa !8
  %128 = load ptr, ptr %18, align 8, !tbaa !8
  %129 = load ptr, ptr %45, align 8, !tbaa !8
  %130 = load ptr, ptr %44, align 8, !tbaa !8
  %131 = load ptr, ptr %21, align 8, !tbaa !8
  %132 = load ptr, ptr %22, align 8, !tbaa !8
  %133 = load ptr, ptr %23, align 8, !tbaa !8
  %134 = load ptr, ptr %24, align 8, !tbaa !8
  %135 = load ptr, ptr %25, align 8, !tbaa !8
  %136 = load ptr, ptr %26, align 8, !tbaa !8
  %137 = load ptr, ptr %27, align 8, !tbaa !8
  %138 = load ptr, ptr %28, align 8, !tbaa !8
  %139 = load ptr, ptr %29, align 8, !tbaa !8
  %140 = call ptr @lean_apply_11(ptr noundef %128, ptr noundef %129, ptr noundef %130, ptr noundef %131, ptr noundef %132, ptr noundef %133, ptr noundef %134, ptr noundef %135, ptr noundef %136, ptr noundef %137, ptr noundef %138, ptr noundef %139)
  store ptr %140, ptr %46, align 8, !tbaa !8
  %141 = load ptr, ptr %46, align 8, !tbaa !8
  store ptr %141, ptr %15, align 8
  store i32 1, ptr %38, align 4
  call void @llvm.lifetime.end.p0(i64 8, ptr %46) #7
  call void @llvm.lifetime.end.p0(i64 8, ptr %45) #7
  call void @llvm.lifetime.end.p0(i64 8, ptr %44) #7
  br label %142

142:                                              ; preds = %123, %122
  call void @llvm.lifetime.end.p0(i64 1, ptr %30) #7
  %143 = load ptr, ptr %15, align 8
  ret ptr %143
}