; Function Attrs: nounwind uwtable
define ptr @l_Std_DTreeMap_Internal_Impl_forInStep___at___private_Lean_Meta_Tactic_Grind_Inv_0__Lean_Meta_Grind_checkParents___spec__3___lambda__3(ptr noundef %0, ptr noundef %1, ptr noundef %2, i8 noundef zeroext %3, ptr readnone captures(none) %4, ptr noundef %5, ptr noundef %6, ptr noundef %7, ptr noundef %8, ptr noundef %9, ptr noundef %10, ptr noundef %11, ptr noundef %12, ptr noundef %13) local_unnamed_addr #0 {
  %15 = tail call zeroext i8 @l_Lean_Expr_hasLooseBVars(ptr noundef %0) #4
  %16 = icmp eq i8 %15, 0
  br i1 %16, label %17, label %80

17:                                               ; preds = %14
  %18 = tail call ptr @l_Lean_Meta_Grind_checkChild(ptr noundef %1, ptr noundef %0, ptr noundef %5, ptr poison, ptr poison, ptr poison, ptr poison, ptr poison, ptr poison, ptr poison, ptr noundef %13)
  %19 = getelementptr inbounds nuw i8, ptr %18, i64 8
  %20 = load ptr, ptr %19, align 8, !tbaa !4
  %21 = ptrtoint ptr %20 to i64
  %22 = and i64 %21, 1
  %.not = icmp eq i64 %22, 0
  br i1 %.not, label %23, label %lean_dec.exit67

23:                                               ; preds = %17
  %.val.i = load i32, ptr %20, align 4, !tbaa !8
  %24 = icmp sgt i32 %.val.i, 0
  br i1 %24, label %25, label %27, !prof !11

25:                                               ; preds = %23
  %26 = add nuw i32 %.val.i, 1
  store i32 %26, ptr %20, align 4, !tbaa !8
  br label %29

27:                                               ; preds = %23
  %.not.i74 = icmp eq i32 %.val.i, 0
  br i1 %.not.i74, label %lean_dec.exit67, label %28

28:                                               ; preds = %27
  tail call void @lean_inc_ref_cold(ptr noundef nonnull %20) #4
  %.pr = load i32, ptr %20, align 4, !tbaa !8
  br label %29

29:                                               ; preds = %28, %25
  %30 = phi i32 [ %.pr, %28 ], [ %26, %25 ]
  %31 = icmp sgt i32 %30, 1
  br i1 %31, label %32, label %34, !prof !15

32:                                               ; preds = %29
  %33 = add nsw i32 %30, -1
  store i32 %33, ptr %20, align 4, !tbaa !8
  br label %lean_dec.exit67

34:                                               ; preds = %29
  %.not.i = icmp eq i32 %30, 0
  br i1 %.not.i, label %lean_dec.exit67, label %35

35:                                               ; preds = %34
  tail call void @lean_dec_ref_cold(ptr noundef nonnull %20) #4
  br label %lean_dec.exit67

lean_dec.exit67:                                  ; preds = %17, %27, %35, %34, %32
  %36 = and i64 %21, 510
  %37 = icmp eq i64 %36, 0
  %38 = getelementptr inbounds nuw i8, ptr %18, i64 16
  %39 = load ptr, ptr %38, align 8, !tbaa !4
  %40 = ptrtoint ptr %39 to i64
  %41 = and i64 %40, 1
  %.not85 = icmp eq i64 %41, 0
  br i1 %37, label %42, label %63

42:                                               ; preds = %lean_dec.exit67
  br i1 %.not85, label %43, label %lean_inc.exit68

43:                                               ; preds = %42
  %.val.i75 = load i32, ptr %39, align 4, !tbaa !8
  %44 = icmp sgt i32 %.val.i75, 0
  br i1 %44, label %45, label %47, !prof !11

45:                                               ; preds = %43
  %46 = add nuw i32 %.val.i75, 1
  store i32 %46, ptr %39, align 4, !tbaa !8
  br label %lean_inc.exit68

47:                                               ; preds = %43
  %.not.i76 = icmp eq i32 %.val.i75, 0
  br i1 %.not.i76, label %lean_inc.exit68, label %48

48:                                               ; preds = %47
  tail call void @lean_inc_ref_cold(ptr noundef nonnull %39) #4
  br label %lean_inc.exit68

lean_inc.exit68:                                  ; preds = %48, %47, %45, %42
  %49 = ptrtoint ptr %18 to i64
  %50 = and i64 %49, 1
  %.not86 = icmp eq i64 %50, 0
  br i1 %.not86, label %51, label %lean_dec.exit66

51:                                               ; preds = %lean_inc.exit68
  %52 = load i32, ptr %18, align 4, !tbaa !8
  %53 = icmp sgt i32 %52, 1
  br i1 %53, label %54, label %56, !prof !11

54:                                               ; preds = %51
  %55 = add nsw i32 %52, -1
  store i32 %55, ptr %18, align 4, !tbaa !8
  br label %lean_dec.exit66

56:                                               ; preds = %51
  %.not.i70 = icmp eq i32 %52, 0
  br i1 %.not.i70, label %lean_dec.exit66, label %57

57:                                               ; preds = %56
  tail call void @lean_dec_ref_cold(ptr noundef nonnull %18) #4
  br label %lean_dec.exit66

lean_dec.exit66:                                  ; preds = %57, %56, %54, %lean_inc.exit68
  %58 = zext i8 %3 to i64
  %59 = shl nuw nsw i64 %58, 1
  %60 = or disjoint i64 %59, 1
  %61 = inttoptr i64 %60 to ptr
  %62 = tail call ptr @lean_apply_11(ptr noundef %2, ptr noundef nonnull %61, ptr noundef nonnull inttoptr (i64 1 to ptr), ptr noundef %5, ptr noundef %6, ptr noundef %7, ptr noundef %8, ptr noundef %9, ptr noundef %10, ptr noundef %11, ptr noundef %12, ptr noundef %39) #4
  br label %86

63:                                               ; preds = %lean_dec.exit67
  br i1 %.not85, label %64, label %lean_inc.exit

64:                                               ; preds = %63
  %.val.i78 = load i32, ptr %39, align 4, !tbaa !8
  %65 = icmp sgt i32 %.val.i78, 0
  br i1 %65, label %66, label %68, !prof !11

66:                                               ; preds = %64
  %67 = add nuw i32 %.val.i78, 1
  store i32 %67, ptr %39, align 4, !tbaa !8
  br label %lean_inc.exit

68:                                               ; preds = %64
  %.not.i79 = icmp eq i32 %.val.i78, 0
  br i1 %.not.i79, label %lean_inc.exit, label %69

69:                                               ; preds = %68
  tail call void @lean_inc_ref_cold(ptr noundef nonnull %39) #4
  br label %lean_inc.exit

lean_inc.exit:                                    ; preds = %69, %68, %66, %63
  %70 = ptrtoint ptr %18 to i64
  %71 = and i64 %70, 1
  %.not84 = icmp eq i64 %71, 0
  br i1 %.not84, label %72, label %lean_dec.exit

72:                                               ; preds = %lean_inc.exit
  %73 = load i32, ptr %18, align 4, !tbaa !8
  %74 = icmp sgt i32 %73, 1
  br i1 %74, label %75, label %77, !prof !11

75:                                               ; preds = %72
  %76 = add nsw i32 %73, -1
  store i32 %76, ptr %18, align 4, !tbaa !8
  br label %lean_dec.exit

77:                                               ; preds = %72
  %.not.i72 = icmp eq i32 %73, 0
  br i1 %.not.i72, label %lean_dec.exit, label %78

78:                                               ; preds = %77
  tail call void @lean_dec_ref_cold(ptr noundef nonnull %18) #4
  br label %lean_dec.exit

lean_dec.exit:                                    ; preds = %78, %77, %75, %lean_inc.exit
  %79 = tail call ptr @lean_apply_11(ptr noundef %2, ptr noundef nonnull inttoptr (i64 3 to ptr), ptr noundef nonnull inttoptr (i64 1 to ptr), ptr noundef %5, ptr noundef %6, ptr noundef %7, ptr noundef %8, ptr noundef %9, ptr noundef %10, ptr noundef %11, ptr noundef %12, ptr noundef %39) #4
  br label %86

80:                                               ; preds = %14
  %81 = zext i8 %3 to i64
  %82 = shl nuw nsw i64 %81, 1
  %83 = or disjoint i64 %82, 1
  %84 = inttoptr i64 %83 to ptr
  %85 = tail call ptr @lean_apply_11(ptr noundef %2, ptr noundef nonnull %84, ptr noundef nonnull inttoptr (i64 1 to ptr), ptr noundef %5, ptr noundef %6, ptr noundef %7, ptr noundef %8, ptr noundef %9, ptr noundef %10, ptr noundef %11, ptr noundef %12, ptr noundef %13) #4
  br label %86

86:                                               ; preds = %lean_dec.exit66, %lean_dec.exit, %80
  %.1 = phi ptr [ %85, %80 ], [ %62, %lean_dec.exit66 ], [ %79, %lean_dec.exit ]
  ret ptr %.1
}